; ModuleID = '59/1344.c'
source_filename = "59/1344.c"
target datalayout = "e-m:e-p270:32:32-p271:32:32-p272:64:64-i64:64-f80:128-n8:16:32:64-S128"
target triple = "x86_64-pc-linux-gnu"

@.str = private unnamed_addr constant [3 x i8] c"%d\00", align 1
@.str.1 = private unnamed_addr constant [4 x i8] c"%s\0A\00", align 1

; Function Attrs: noinline nounwind uwtable
define dso_local i32 @main() #0 {
  %1 = alloca i32, align 4
  %2 = alloca i32, align 4
  %3 = alloca i32, align 4
  %4 = alloca i32, align 4
  %5 = alloca i32, align 4
  %6 = alloca i32, align 4
  %7 = alloca i32, align 4
  %8 = alloca [200 x [200 x i8]], align 16
  %9 = alloca [200 x [200 x i8]], align 16
  store i32 0, i32* %1, align 4
  store i32 0, i32* %7, align 4
  %10 = call i32 (i8*, ...) @__isoc99_scanf(i8* getelementptr inbounds ([3 x i8], [3 x i8]* @.str, i64 0, i64 0), i32* %4)
  store i32 0, i32* %2, align 4
  br label %11

11:                                               ; preds = %30, %0
  %12 = load i32, i32* %2, align 4
  %13 = load i32, i32* %4, align 4
  %14 = icmp slt i32 %12, %13
  br i1 %14, label %15, label %33

15:                                               ; preds = %11
  %16 = load i32, i32* %2, align 4
  %17 = sext i32 %16 to i64
  %18 = getelementptr inbounds [200 x [200 x i8]], [200 x [200 x i8]]* %8, i64 0, i64 %17
  %19 = getelementptr inbounds [200 x i8], [200 x i8]* %18, i64 0, i64 0
  %20 = call i32 (i8*, ...) @__isoc99_scanf(i8* getelementptr inbounds ([4 x i8], [4 x i8]* @.str.1, i64 0, i64 0), i8* %19)
  %21 = load i32, i32* %2, align 4
  %22 = sext i32 %21 to i64
  %23 = getelementptr inbounds [200 x [200 x i8]], [200 x [200 x i8]]* %9, i64 0, i64 %22
  %24 = getelementptr inbounds [200 x i8], [200 x i8]* %23, i64 0, i64 0
  %25 = load i32, i32* %2, align 4
  %26 = sext i32 %25 to i64
  %27 = getelementptr inbounds [200 x [200 x i8]], [200 x [200 x i8]]* %8, i64 0, i64 %26
  %28 = getelementptr inbounds [200 x i8], [200 x i8]* %27, i64 0, i64 0
  %29 = call i8* @strcpy(i8* %24, i8* %28) #3
  br label %30

30:                                               ; preds = %15
  %31 = load i32, i32* %2, align 4
  %32 = add nsw i32 %31, 1
  store i32 %32, i32* %2, align 4
  br label %11

33:                                               ; preds = %11
  %34 = call i32 (i8*, ...) @__isoc99_scanf(i8* getelementptr inbounds ([3 x i8], [3 x i8]* @.str, i64 0, i64 0), i32* %5)
  store i32 0, i32* %6, align 4
  br label %35

35:                                               ; preds = %164, %33
  %36 = load i32, i32* %6, align 4
  %37 = load i32, i32* %5, align 4
  %38 = sub nsw i32 %37, 1
  %39 = icmp slt i32 %36, %38
  br i1 %39, label %40, label %167

40:                                               ; preds = %35
  store i32 0, i32* %2, align 4
  br label %41

41:                                               ; preds = %142, %40
  %42 = load i32, i32* %2, align 4
  %43 = load i32, i32* %4, align 4
  %44 = icmp slt i32 %42, %43
  br i1 %44, label %45, label %145

45:                                               ; preds = %41
  store i32 0, i32* %3, align 4
  br label %46

46:                                               ; preds = %138, %45
  %47 = load i32, i32* %3, align 4
  %48 = load i32, i32* %4, align 4
  %49 = icmp slt i32 %47, %48
  br i1 %49, label %50, label %141

50:                                               ; preds = %46
  %51 = load i32, i32* %2, align 4
  %52 = sext i32 %51 to i64
  %53 = getelementptr inbounds [200 x [200 x i8]], [200 x [200 x i8]]* %8, i64 0, i64 %52
  %54 = load i32, i32* %3, align 4
  %55 = sext i32 %54 to i64
  %56 = getelementptr inbounds [200 x i8], [200 x i8]* %53, i64 0, i64 %55
  %57 = load i8, i8* %56, align 1
  %58 = sext i8 %57 to i32
  %59 = icmp eq i32 %58, 64
  br i1 %59, label %60, label %137

60:                                               ; preds = %50
  %61 = load i32, i32* %2, align 4
  %62 = add nsw i32 %61, 1
  %63 = sext i32 %62 to i64
  %64 = getelementptr inbounds [200 x [200 x i8]], [200 x [200 x i8]]* %8, i64 0, i64 %63
  %65 = load i32, i32* %3, align 4
  %66 = sext i32 %65 to i64
  %67 = getelementptr inbounds [200 x i8], [200 x i8]* %64, i64 0, i64 %66
  %68 = load i8, i8* %67, align 1
  %69 = sext i8 %68 to i32
  %70 = icmp eq i32 %69, 46
  br i1 %70, label %71, label %79

71:                                               ; preds = %60
  %72 = load i32, i32* %2, align 4
  %73 = add nsw i32 %72, 1
  %74 = sext i32 %73 to i64
  %75 = getelementptr inbounds [200 x [200 x i8]], [200 x [200 x i8]]* %9, i64 0, i64 %74
  %76 = load i32, i32* %3, align 4
  %77 = sext i32 %76 to i64
  %78 = getelementptr inbounds [200 x i8], [200 x i8]* %75, i64 0, i64 %77
  store i8 64, i8* %78, align 1
  br label %79

79:                                               ; preds = %71, %60
  %80 = load i32, i32* %2, align 4
  %81 = sub nsw i32 %80, 1
  %82 = sext i32 %81 to i64
  %83 = getelementptr inbounds [200 x [200 x i8]], [200 x [200 x i8]]* %8, i64 0, i64 %82
  %84 = load i32, i32* %3, align 4
  %85 = sext i32 %84 to i64
  %86 = getelementptr inbounds [200 x i8], [200 x i8]* %83, i64 0, i64 %85
  %87 = load i8, i8* %86, align 1
  %88 = sext i8 %87 to i32
  %89 = icmp eq i32 %88, 46
  br i1 %89, label %90, label %98

90:                                               ; preds = %79
  %91 = load i32, i32* %2, align 4
  %92 = sub nsw i32 %91, 1
  %93 = sext i32 %92 to i64
  %94 = getelementptr inbounds [200 x [200 x i8]], [200 x [200 x i8]]* %9, i64 0, i64 %93
  %95 = load i32, i32* %3, align 4
  %96 = sext i32 %95 to i64
  %97 = getelementptr inbounds [200 x i8], [200 x i8]* %94, i64 0, i64 %96
  store i8 64, i8* %97, align 1
  br label %98

98:                                               ; preds = %90, %79
  %99 = load i32, i32* %2, align 4
  %100 = sext i32 %99 to i64
  %101 = getelementptr inbounds [200 x [200 x i8]], [200 x [200 x i8]]* %8, i64 0, i64 %100
  %102 = load i32, i32* %3, align 4
  %103 = add nsw i32 %102, 1
  %104 = sext i32 %103 to i64
  %105 = getelementptr inbounds [200 x i8], [200 x i8]* %101, i64 0, i64 %104
  %106 = load i8, i8* %105, align 1
  %107 = sext i8 %106 to i32
  %108 = icmp eq i32 %107, 46
  br i1 %108, label %109, label %117

109:                                              ; preds = %98
  %110 = load i32, i32* %2, align 4
  %111 = sext i32 %110 to i64
  %112 = getelementptr inbounds [200 x [200 x i8]], [200 x [200 x i8]]* %9, i64 0, i64 %111
  %113 = load i32, i32* %3, align 4
  %114 = add nsw i32 %113, 1
  %115 = sext i32 %114 to i64
  %116 = getelementptr inbounds [200 x i8], [200 x i8]* %112, i64 0, i64 %115
  store i8 64, i8* %116, align 1
  br label %117

117:                                              ; preds = %109, %98
  %118 = load i32, i32* %2, align 4
  %119 = sext i32 %118 to i64
  %120 = getelementptr inbounds [200 x [200 x i8]], [200 x [200 x i8]]* %8, i64 0, i64 %119
  %121 = load i32, i32* %3, align 4
  %122 = sub nsw i32 %121, 1
  %123 = sext i32 %122 to i64
  %124 = getelementptr inbounds [200 x i8], [200 x i8]* %120, i64 0, i64 %123
  %125 = load i8, i8* %124, align 1
  %126 = sext i8 %125 to i32
  %127 = icmp eq i32 %126, 46
  br i1 %127, label %128, label %136

128:                                              ; preds = %117
  %129 = load i32, i32* %2, align 4
  %130 = sext i32 %129 to i64
  %131 = getelementptr inbounds [200 x [200 x i8]], [200 x [200 x i8]]* %9, i64 0, i64 %130
  %132 = load i32, i32* %3, align 4
  %133 = sub nsw i32 %132, 1
  %134 = sext i32 %133 to i64
  %135 = getelementptr inbounds [200 x i8], [200 x i8]* %131, i64 0, i64 %134
  store i8 64, i8* %135, align 1
  br label %136

136:                                              ; preds = %128, %117
  br label %137

137:                                              ; preds = %136, %50
  br label %138

138:                                              ; preds = %137
  %139 = load i32, i32* %3, align 4
  %140 = add nsw i32 %139, 1
  store i32 %140, i32* %3, align 4
  br label %46

141:                                              ; preds = %46
  br label %142

142:                                              ; preds = %141
  %143 = load i32, i32* %2, align 4
  %144 = add nsw i32 %143, 1
  store i32 %144, i32* %2, align 4
  br label %41

145:                                              ; preds = %41
  store i32 0, i32* %2, align 4
  br label %146

146:                                              ; preds = %160, %145
  %147 = load i32, i32* %2, align 4
  %148 = load i32, i32* %4, align 4
  %149 = icmp slt i32 %147, %148
  br i1 %149, label %150, label %163

150:                                              ; preds = %146
  %151 = load i32, i32* %2, align 4
  %152 = sext i32 %151 to i64
  %153 = getelementptr inbounds [200 x [200 x i8]], [200 x [200 x i8]]* %8, i64 0, i64 %152
  %154 = getelementptr inbounds [200 x i8], [200 x i8]* %153, i64 0, i64 0
  %155 = load i32, i32* %2, align 4
  %156 = sext i32 %155 to i64
  %157 = getelementptr inbounds [200 x [200 x i8]], [200 x [200 x i8]]* %9, i64 0, i64 %156
  %158 = getelementptr inbounds [200 x i8], [200 x i8]* %157, i64 0, i64 0
  %159 = call i8* @strcpy(i8* %154, i8* %158) #3
  br label %160

160:                                              ; preds = %150
  %161 = load i32, i32* %2, align 4
  %162 = add nsw i32 %161, 1
  store i32 %162, i32* %2, align 4
  br label %146

163:                                              ; preds = %146
  br label %164

164:                                              ; preds = %163
  %165 = load i32, i32* %6, align 4
  %166 = add nsw i32 %165, 1
  store i32 %166, i32* %6, align 4
  br label %35

167:                                              ; preds = %35
  store i32 0, i32* %2, align 4
  br label %168

168:                                              ; preds = %195, %167
  %169 = load i32, i32* %2, align 4
  %170 = load i32, i32* %4, align 4
  %171 = icmp slt i32 %169, %170
  br i1 %171, label %172, label %198

172:                                              ; preds = %168
  store i32 0, i32* %3, align 4
  br label %173

173:                                              ; preds = %191, %172
  %174 = load i32, i32* %3, align 4
  %175 = load i32, i32* %4, align 4
  %176 = icmp slt i32 %174, %175
  br i1 %176, label %177, label %194

177:                                              ; preds = %173
  %178 = load i32, i32* %2, align 4
  %179 = sext i32 %178 to i64
  %180 = getelementptr inbounds [200 x [200 x i8]], [200 x [200 x i8]]* %9, i64 0, i64 %179
  %181 = load i32, i32* %3, align 4
  %182 = sext i32 %181 to i64
  %183 = getelementptr inbounds [200 x i8], [200 x i8]* %180, i64 0, i64 %182
  %184 = load i8, i8* %183, align 1
  %185 = sext i8 %184 to i32
  %186 = icmp eq i32 %185, 64
  br i1 %186, label %187, label %190

187:                                              ; preds = %177
  %188 = load i32, i32* %7, align 4
  %189 = add nsw i32 %188, 1
  store i32 %189, i32* %7, align 4
  br label %190

190:                                              ; preds = %187, %177
  br label %191

191:                                              ; preds = %190
  %192 = load i32, i32* %3, align 4
  %193 = add nsw i32 %192, 1
  store i32 %193, i32* %3, align 4
  br label %173

194:                                              ; preds = %173
  br label %195

195:                                              ; preds = %194
  %196 = load i32, i32* %2, align 4
  %197 = add nsw i32 %196, 1
  store i32 %197, i32* %2, align 4
  br label %168

198:                                              ; preds = %168
  %199 = load i32, i32* %7, align 4
  %200 = call i32 (i8*, ...) @printf(i8* getelementptr inbounds ([3 x i8], [3 x i8]* @.str, i64 0, i64 0), i32 %199)
  ret i32 0
}

declare dso_local i32 @__isoc99_scanf(i8*, ...) #1

; Function Attrs: nounwind
declare dso_local i8* @strcpy(i8*, i8*) #2

declare dso_local i32 @printf(i8*, ...) #1


!llvm.module.flags = !{!0}
!llvm.ident = !{!1}

!0 = !{i32 1, !"wchar_size", i32 4}
!1 = !{!"clang version 10.0.0-4ubuntu1 "}
